target datalayout = "e-m:e-p270:32:32-p271:32:32-p272:64:64-i64:64-i128:128-f80:128-n8:16:32:64-S128"
target triple = "x86_64-pc-linux-gnu"

%"class.std::__cxx11::basic_string" = type { %"struct.std::__cxx11::basic_string<char>::_Alloc_hider", i64, %union.anon }
%"struct.std::__cxx11::basic_string<char>::_Alloc_hider" = type { ptr }
%union.anon = type { i64, [8 x i8] }

@.str = private unnamed_addr constant [27 x i8] c"zueci_dest_len_utf8 failed\00", align 1
@_ZTISt13runtime_error = external constant ptr
@.str.1 = private unnamed_addr constant [25 x i8] c"zueci_eci_to_utf8 failed\00", align 1

; Function Attrs: mustprogress nounwind uwtable
define linkonce_odr noundef ptr @_ZNKSt7__cxx1112basic_stringIcSt11char_traitsIcESaIcEE7_M_dataEv(ptr noundef nonnull align 8 dereferenceable(32) %0) #4 comdat align 2 {
  %2 = alloca ptr, align 8
  store ptr %0, ptr %2, align 8, !tbaa !3
  %3 = load ptr, ptr %2, align 8
  %4 = getelementptr inbounds nuw %"class.std::__cxx11::basic_string", ptr %3, i32 0, i32 0
  %5 = getelementptr inbounds nuw %"struct.std::__cxx11::basic_string<char>::_Alloc_hider", ptr %4, i32 0, i32 0
  %6 = load ptr, ptr %5, align 8, !tbaa !32
  ret ptr %6
}

; Function Attrs: mustprogress nounwind uwtable
define linkonce_odr noundef ptr @_ZNSt7__cxx1112basic_stringIcSt11char_traitsIcESaIcEE4dataEv(ptr noundef nonnull align 8 dereferenceable(32) %0) #4 comdat align 2 {
  %2 = alloca ptr, align 8
  store ptr %0, ptr %2, align 8, !tbaa !3
  %3 = load ptr, ptr %2, align 8
  %4 = call noundef ptr @_ZNKSt7__cxx1112basic_stringIcSt11char_traitsIcESaIcEE7_M_dataEv(ptr noundef nonnull align 8 dereferenceable(32) %3)
  ret ptr %4
}

; Function Attrs: mustprogress nounwind uwtable
define linkonce_odr noundef i32 @_ZN5ZXing11narrow_castIiRmEET_OT0_(ptr noundef nonnull align 8 dereferenceable(8) %0) #4 comdat {
  %2 = alloca ptr, align 8
  store ptr %0, ptr %2, align 8, !tbaa !25
  %3 = load ptr, ptr %2, align 8, !tbaa !25
  %4 = load i64, ptr %3, align 8, !tbaa !10
  %5 = trunc i64 %4 to i32
  ret i32 %5
}

; Function Attrs: mustprogress nounwind uwtable
define linkonce_odr noundef i64 @_ZNKSt7__cxx1112basic_stringIcSt11char_traitsIcESaIcEE6lengthEv(ptr noundef nonnull align 8 dereferenceable(32) %0) #4 comdat align 2 {
  %2 = alloca ptr, align 8
  store ptr %0, ptr %2, align 8, !tbaa !3
  %3 = load ptr, ptr %2, align 8
  %4 = getelementptr inbounds nuw %"class.std::__cxx11::basic_string", ptr %3, i32 0, i32 1
  %5 = load i64, ptr %4, align 8, !tbaa !22
  ret i64 %5
}

; Function Attrs: inlinehint mustprogress nounwind uwtable
define linkonce_odr noundef i32 @_ZN5ZXing5ToIntENS_3ECIE(i32 noundef %0) #2 comdat {
  %2 = alloca i32, align 4
  store i32 %0, ptr %2, align 4, !tbaa !20
  %3 = load i32, ptr %2, align 4, !tbaa !20
  ret i32 %3
}

; Function Attrs: mustprogress uwtable
define void @_ZN5ZXing11TextDecoder6AppendERNSt7__cxx1112basic_stringIcSt11char_traitsIcESaIcEEEPKhmNS_12CharacterSetEb(ptr noundef nonnull align 8 dereferenceable(32) %0, ptr noundef %1, i64 noundef %2, i8 noundef zeroext %3, i1 noundef zeroext %4) #0 align 2 personality ptr @__gxx_personality_v0 {
  %6 = alloca ptr, align 8
  %7 = alloca ptr, align 8
  %8 = alloca i64, align 8
  %9 = alloca i8, align 1
  %10 = alloca i8, align 1
  %11 = alloca i32, align 4
  %12 = alloca i64, align 8
  %13 = alloca i32, align 4
  %14 = alloca i32, align 4
  %15 = alloca i32, align 4
  %16 = alloca i32, align 4
  %17 = alloca i32, align 4
  %18 = alloca ptr, align 8
  %19 = alloca i32, align 4
  %20 = alloca ptr, align 8
  store ptr %0, ptr %6, align 8, !tbaa !3
  store ptr %1, ptr %7, align 8, !tbaa !8
  store i64 %2, ptr %8, align 8, !tbaa !10
  store i8 %3, ptr %9, align 1, !tbaa !12
  %21 = zext i1 %4 to i8
  store i8 %21, ptr %10, align 1, !tbaa !14
  call void @llvm.lifetime.start.p0(i64 4, ptr %11) #15
  %22 = load i8, ptr %9, align 1, !tbaa !12
  %23 = call noundef i32 @_ZN5ZXing5ToECIENS_12CharacterSetE(i8 noundef zeroext %22)
  %24 = call noundef i32 @_ZN5ZXing5ToIntENS_3ECIE(i32 noundef %23)
  store i32 %24, ptr %11, align 4, !tbaa !16
  call void @llvm.lifetime.start.p0(i64 8, ptr %12) #15
  %25 = load ptr, ptr %6, align 8, !tbaa !3
  %26 = call noundef i64 @_ZNKSt7__cxx1112basic_stringIcSt11char_traitsIcESaIcEE6lengthEv(ptr noundef nonnull align 8 dereferenceable(32) %25) #15
  store i64 %26, ptr %12, align 8, !tbaa !10
  call void @llvm.lifetime.start.p0(i64 4, ptr %13) #15
  %27 = call noundef i32 @_ZN5ZXing11narrow_castIiRmEET_OT0_(ptr noundef nonnull align 8 dereferenceable(8) %8) #15
  store i32 %27, ptr %13, align 4, !tbaa !16
  call void @llvm.lifetime.start.p0(i64 4, ptr %14) #15
  store i32 65533, ptr %14, align 4, !tbaa !16
  call void @llvm.lifetime.start.p0(i64 4, ptr %15) #15
  %28 = load i8, ptr %10, align 1, !tbaa !14, !range !18, !noundef !19
  %29 = trunc i8 %28 to i1
  %30 = select i1 %29, i32 2, i32 0
  %31 = or i32 1, %30
  store i32 %31, ptr %15, align 4, !tbaa !16
  call void @llvm.lifetime.start.p0(i64 4, ptr %16) #15
  %32 = load i32, ptr %11, align 4, !tbaa !16
  %33 = icmp eq i32 %32, -1
  br i1 %33, label %34, label %35

34:                                               ; preds = %5
  store i32 899, ptr %11, align 4, !tbaa !16
  br label %35

35:                                               ; preds = %34, %5
  call void @llvm.lifetime.start.p0(i64 4, ptr %17) #15
  %36 = load i32, ptr %11, align 4, !tbaa !16
  %37 = load ptr, ptr %7, align 8, !tbaa !8
  %38 = load i32, ptr %13, align 4, !tbaa !16
  %39 = load i32, ptr %15, align 4, !tbaa !16
  %40 = call i32 @zueci_dest_len_utf8(i32 noundef %36, ptr noundef %37, i32 noundef %38, i32 noundef 65533, i32 noundef %39, ptr noundef %16)
  store i32 %40, ptr %17, align 4, !tbaa !16
  %41 = load i32, ptr %17, align 4, !tbaa !16
  %42 = icmp sge i32 %41, 5
  br i1 %42, label %43, label %50

43:                                               ; preds = %35
  %44 = call ptr @__cxa_allocate_exception(i64 16) #15
  invoke void @_ZNSt13runtime_errorC1EPKc(ptr noundef nonnull align 8 dereferenceable(16) %44, ptr noundef @.str)
          to label %45 unwind label %46

45:                                               ; preds = %43
  call void @__cxa_throw(ptr %44, ptr @_ZTISt13runtime_error, ptr @_ZNSt13runtime_errorD1Ev) #16
  unreachable

46:                                               ; preds = %43
  %47 = landingpad { ptr, i32 }
          cleanup
  %48 = extractvalue { ptr, i32 } %47, 0
  store ptr %48, ptr %18, align 8
  %49 = extractvalue { ptr, i32 } %47, 1
  store i32 %49, ptr %19, align 4
  call void @__cxa_free_exception(ptr %44) #15
  br label %78

50:                                               ; preds = %35
  %51 = load ptr, ptr %6, align 8, !tbaa !3
  %52 = load i64, ptr %12, align 8, !tbaa !10
  %53 = load i32, ptr %16, align 4, !tbaa !16
  %54 = sext i32 %53 to i64
  %55 = add i64 %52, %54
  call void @_ZNSt7__cxx1112basic_stringIcSt11char_traitsIcESaIcEE6resizeEm(ptr noundef nonnull align 8 dereferenceable(32) %51, i64 noundef %55)
  call void @llvm.lifetime.start.p0(i64 8, ptr %20) #15
  %56 = load ptr, ptr %6, align 8, !tbaa !3
  %57 = call noundef ptr @_ZNSt7__cxx1112basic_stringIcSt11char_traitsIcESaIcEE4dataEv(ptr noundef nonnull align 8 dereferenceable(32) %56) #15
  %58 = load i64, ptr %12, align 8, !tbaa !10
  %59 = getelementptr inbounds nuw i8, ptr %57, i64 %58
  store ptr %59, ptr %20, align 8, !tbaa !8
  %60 = load i32, ptr %11, align 4, !tbaa !16
  %61 = load ptr, ptr %7, align 8, !tbaa !8
  %62 = load i32, ptr %13, align 4, !tbaa !16
  %63 = load i32, ptr %15, align 4, !tbaa !16
  %64 = load ptr, ptr %20, align 8, !tbaa !8
  %65 = call i32 @zueci_eci_to_utf8(i32 noundef %60, ptr noundef %61, i32 noundef %62, i32 noundef 65533, i32 noundef %63, ptr noundef %64, ptr noundef %16)
  store i32 %65, ptr %17, align 4, !tbaa !16
  %66 = load i32, ptr %17, align 4, !tbaa !16
  %67 = icmp sge i32 %66, 5
  br i1 %67, label %68, label %77

68:                                               ; preds = %50
  %69 = load ptr, ptr %6, align 8, !tbaa !3
  %70 = load i64, ptr %12, align 8, !tbaa !10
  call void @_ZNSt7__cxx1112basic_stringIcSt11char_traitsIcESaIcEE6resizeEm(ptr noundef nonnull align 8 dereferenceable(32) %69, i64 noundef %70)
  %71 = call ptr @__cxa_allocate_exception(i64 16) #15
  invoke void @_ZNSt13runtime_errorC1EPKc(ptr noundef nonnull align 8 dereferenceable(16) %71, ptr noundef @.str.1)
          to label %72 unwind label %73

72:                                               ; preds = %68
  call void @__cxa_throw(ptr %71, ptr @_ZTISt13runtime_error, ptr @_ZNSt13runtime_errorD1Ev) #16
  unreachable

73:                                               ; preds = %68
  %74 = landingpad { ptr, i32 }
          cleanup
  %75 = extractvalue { ptr, i32 } %74, 0
  store ptr %75, ptr %18, align 8
  %76 = extractvalue { ptr, i32 } %74, 1
  store i32 %76, ptr %19, align 4
  call void @__cxa_free_exception(ptr %71) #15
  call void @llvm.lifetime.end.p0(i64 8, ptr %20) #15
  br label %78

77:                                               ; preds = %50
  call void @llvm.lifetime.end.p0(i64 8, ptr %20) #15
  call void @llvm.lifetime.end.p0(i64 4, ptr %17) #15
  call void @llvm.lifetime.end.p0(i64 4, ptr %16) #15
  call void @llvm.lifetime.end.p0(i64 4, ptr %15) #15
  call void @llvm.lifetime.end.p0(i64 4, ptr %14) #15
  call void @llvm.lifetime.end.p0(i64 4, ptr %13) #15
  call void @llvm.lifetime.end.p0(i64 8, ptr %12) #15
  call void @llvm.lifetime.end.p0(i64 4, ptr %11) #15
  ret void

78:                                               ; preds = %73, %46
  call void @llvm.lifetime.end.p0(i64 4, ptr %17) #15
  call void @llvm.lifetime.end.p0(i64 4, ptr %16) #15
  call void @llvm.lifetime.end.p0(i64 4, ptr %15) #15
  call void @llvm.lifetime.end.p0(i64 4, ptr %14) #15
  call void @llvm.lifetime.end.p0(i64 4, ptr %13) #15
  call void @llvm.lifetime.end.p0(i64 8, ptr %12) #15
  call void @llvm.lifetime.end.p0(i64 4, ptr %11) #15
  br label %79

79:                                               ; preds = %78
  %80 = load ptr, ptr %18, align 8
  %81 = load i32, ptr %19, align 4
  %82 = insertvalue { ptr, i32 } poison, ptr %80, 0
  %83 = insertvalue { ptr, i32 } %82, i32 %81, 1
  resume { ptr, i32 } %83
}