; Function Attrs: mustprogress uwtable
define void @_ZN5ZXing11TextDecoder6AppendERNSt7__cxx1112basic_stringIcSt11char_traitsIcESaIcEEEPKhmNS_12CharacterSetEb(ptr noundef nonnull align 8 dereferenceable(32) %0, ptr noundef %1, i64 noundef %2, i8 noundef zeroext %3, i1 noundef zeroext %4) local_unnamed_addr #0 align 2 personality ptr @__gxx_personality_v0 {
  %6 = alloca i32, align 4
  %7 = tail call noundef i32 @_ZN5ZXing5ToECIENS_12CharacterSetE(i8 noundef zeroext %3)
  %8 = getelementptr inbounds nuw i8, ptr %0, i64 8
  %9 = load i64, ptr %8, align 8, !tbaa !3
  %10 = trunc i64 %2 to i32
  %11 = select i1 %4, i32 3, i32 1
  call void @llvm.lifetime.start.p0(i64 4, ptr nonnull %6) #14
  %12 = icmp eq i32 %7, -1
  %spec.store.select = select i1 %12, i32 899, i32 %7
  %13 = call i32 @zueci_dest_len_utf8(i32 noundef %spec.store.select, ptr noundef %1, i32 noundef %10, i32 noundef 65533, i32 noundef %11, ptr noundef nonnull %6)
  %14 = icmp sgt i32 %13, 4
  br i1 %14, label %15, label %20

15:                                               ; preds = %5
  %16 = call ptr @__cxa_allocate_exception(i64 16) #14
  invoke void @_ZNSt13runtime_errorC1EPKc(ptr noundef nonnull align 8 dereferenceable(16) %16, ptr noundef nonnull @.str)
          to label %17 unwind label %18

17:                                               ; preds = %15
  call void @__cxa_throw(ptr nonnull %16, ptr nonnull @_ZTISt13runtime_error, ptr nonnull @_ZNSt13runtime_errorD1Ev) #15
  unreachable

18:                                               ; preds = %15
  %19 = landingpad { ptr, i32 }
          cleanup
  br label %57

20:                                               ; preds = %5
  %21 = load i32, ptr %6, align 4, !tbaa !11
  %22 = sext i32 %21 to i64
  %23 = add i64 %9, %22
  %24 = load i64, ptr %8, align 8, !tbaa !3
  %25 = icmp ult i64 %24, %23
  br i1 %25, label %26, label %43

26:                                               ; preds = %20
  %27 = sub nuw i64 %23, %24
  %28 = sub i64 9223372036854775807, %24
  %29 = icmp ult i64 %28, %27
  br i1 %29, label %30, label %_ZNKSt7__cxx1112basic_stringIcSt11char_traitsIcESaIcEE15_M_check_lengthEmmPKc.exit.i.i.i.i

30:                                               ; preds = %26
  call void @_ZSt20__throw_length_errorPKc(ptr noundef nonnull @.str.2) #15
  unreachable

_ZNKSt7__cxx1112basic_stringIcSt11char_traitsIcESaIcEE15_M_check_lengthEmmPKc.exit.i.i.i.i: ; preds = %26
  %31 = load ptr, ptr %0, align 8, !tbaa !13
  %32 = getelementptr inbounds nuw i8, ptr %0, i64 16
  %33 = icmp eq ptr %31, %32
  br i1 %33, label %34, label %_ZNKSt7__cxx1112basic_stringIcSt11char_traitsIcESaIcEE8capacityEv.exit.i.i.i.i

34:                                               ; preds = %_ZNKSt7__cxx1112basic_stringIcSt11char_traitsIcESaIcEE15_M_check_lengthEmmPKc.exit.i.i.i.i
  %35 = icmp ult i64 %24, 16
  call void @llvm.assume(i1 %35)
  br label %_ZNKSt7__cxx1112basic_stringIcSt11char_traitsIcESaIcEE8capacityEv.exit.i.i.i.i

_ZNKSt7__cxx1112basic_stringIcSt11char_traitsIcESaIcEE8capacityEv.exit.i.i.i.i: ; preds = %34, %_ZNKSt7__cxx1112basic_stringIcSt11char_traitsIcESaIcEE15_M_check_lengthEmmPKc.exit.i.i.i.i
  %36 = load i64, ptr %32, align 8
  %37 = select i1 %33, i64 15, i64 %36
  %.not.i.i.i.i = icmp ugt i64 %23, %37
  br i1 %.not.i.i.i.i, label %38, label %_ZNSt7__cxx1112basic_stringIcSt11char_traitsIcESaIcEE7_S_moveEPcPKcm.exit.i.i.i.i

38:                                               ; preds = %_ZNKSt7__cxx1112basic_stringIcSt11char_traitsIcESaIcEE8capacityEv.exit.i.i.i.i
  call void @_ZNSt7__cxx1112basic_stringIcSt11char_traitsIcESaIcEE9_M_mutateEmmPKcm(ptr noundef nonnull align 8 dereferenceable(32) %0, i64 noundef %24, i64 noundef 0, ptr noundef null, i64 noundef %27)
  %.pre.i.i = load ptr, ptr %0, align 8, !tbaa !13
  br label %_ZNSt7__cxx1112basic_stringIcSt11char_traitsIcESaIcEE7_S_moveEPcPKcm.exit.i.i.i.i

_ZNSt7__cxx1112basic_stringIcSt11char_traitsIcESaIcEE7_S_moveEPcPKcm.exit.i.i.i.i: ; preds = %38, %_ZNKSt7__cxx1112basic_stringIcSt11char_traitsIcESaIcEE8capacityEv.exit.i.i.i.i
  %39 = phi ptr [ %31, %_ZNKSt7__cxx1112basic_stringIcSt11char_traitsIcESaIcEE8capacityEv.exit.i.i.i.i ], [ %.pre.i.i, %38 ]
  %40 = getelementptr inbounds nuw i8, ptr %39, i64 %24
  %cond.i.i.i.i = icmp eq i64 %27, 1
  br i1 %cond.i.i.i.i, label %41, label %42

41:                                               ; preds = %_ZNSt7__cxx1112basic_stringIcSt11char_traitsIcESaIcEE7_S_moveEPcPKcm.exit.i.i.i.i
  store i8 0, ptr %40, align 1, !tbaa !14
  br label %.sink.split.i.i

42:                                               ; preds = %_ZNSt7__cxx1112basic_stringIcSt11char_traitsIcESaIcEE7_S_moveEPcPKcm.exit.i.i.i.i
  call void @llvm.memset.p0.i64(ptr align 1 %40, i8 0, i64 %27, i1 false)
  br label %.sink.split.i.i

43:                                               ; preds = %20
  %44 = icmp ult i64 %23, %24
  br i1 %44, label %.sink.split.i.i, label %_ZNSt7__cxx1112basic_stringIcSt11char_traitsIcESaIcEE6resizeEm.exit

.sink.split.i.i:                                  ; preds = %43, %42, %41
  store i64 %23, ptr %8, align 8, !tbaa !3
  %45 = load ptr, ptr %0, align 8, !tbaa !13
  %46 = getelementptr inbounds nuw i8, ptr %45, i64 %23
  store i8 0, ptr %46, align 1, !tbaa !14
  br label %_ZNSt7__cxx1112basic_stringIcSt11char_traitsIcESaIcEE6resizeEm.exit

_ZNSt7__cxx1112basic_stringIcSt11char_traitsIcESaIcEE6resizeEm.exit: ; preds = %43, %.sink.split.i.i
  %47 = load ptr, ptr %0, align 8, !tbaa !13
  %48 = getelementptr inbounds nuw i8, ptr %47, i64 %9
  %49 = call i32 @zueci_eci_to_utf8(i32 noundef %spec.store.select, ptr noundef %1, i32 noundef %10, i32 noundef 65533, i32 noundef %11, ptr noundef %48, ptr noundef nonnull %6)
  %50 = icmp sgt i32 %49, 4
  br i1 %50, label %51, label %56

51:                                               ; preds = %_ZNSt7__cxx1112basic_stringIcSt11char_traitsIcESaIcEE6resizeEm.exit
  call void @_ZNSt7__cxx1112basic_stringIcSt11char_traitsIcESaIcEE6resizeEm(ptr noundef nonnull align 8 dereferenceable(32) %0, i64 noundef %9)
  %52 = call ptr @__cxa_allocate_exception(i64 16) #14
  invoke void @_ZNSt13runtime_errorC1EPKc(ptr noundef nonnull align 8 dereferenceable(16) %52, ptr noundef nonnull @.str.1)
          to label %53 unwind label %54

53:                                               ; preds = %51
  call void @__cxa_throw(ptr nonnull %52, ptr nonnull @_ZTISt13runtime_error, ptr nonnull @_ZNSt13runtime_errorD1Ev) #15
  unreachable

54:                                               ; preds = %51
  %55 = landingpad { ptr, i32 }
          cleanup
  br label %57

56:                                               ; preds = %_ZNSt7__cxx1112basic_stringIcSt11char_traitsIcESaIcEE6resizeEm.exit
  call void @llvm.lifetime.end.p0(i64 4, ptr nonnull %6) #14
  ret void

57:                                               ; preds = %54, %18
  %.sink = phi ptr [ %52, %54 ], [ %16, %18 ]
  %.pn = phi { ptr, i32 } [ %55, %54 ], [ %19, %18 ]
  call void @__cxa_free_exception(ptr nonnull %.sink) #14
  call void @llvm.lifetime.end.p0(i64 4, ptr nonnull %6) #14
  resume { ptr, i32 } %.pn
}